target datalayout = "e-m:e-p270:32:32-p271:32:32-p272:64:64-i64:64-i128:128-f80:128-n8:16:32:64-S128"
target triple = "x86_64-unknown-linux-gnu"

%"struct.cineon::IndustryHeader" = type { i8, i8, i8, i8, i32, i32, [32 x i8], i32, float, [32 x i8], [200 x i8], [740 x i8] }

; Function Attrs: mustprogress nounwind uwtable
define linkonce_odr noundef float @_ZNSt14numeric_limitsIfE8infinityEv() #1 comdat align 2 {
entry:
  ret float 0x7FF0000000000000
}

; Function Attrs: mustprogress nounwind uwtable
define hidden void @_ZN6cineon14IndustryHeader5ResetEv(ptr noundef nonnull align 4 dereferenceable(1024) %this) #1 align 2 {
entry:
  %this.addr = alloca ptr, align 8
  store ptr %this, ptr %this.addr, align 8
  %this1 = load ptr, ptr %this.addr, align 8
  %filmManufacturingIdCode = getelementptr inbounds %"struct.cineon::IndustryHeader", ptr %this1, i32 0, i32 0
  store i8 -1, ptr %filmManufacturingIdCode, align 4
  %filmType = getelementptr inbounds %"struct.cineon::IndustryHeader", ptr %this1, i32 0, i32 1
  store i8 -1, ptr %filmType, align 1
  %perfsOffset = getelementptr inbounds %"struct.cineon::IndustryHeader", ptr %this1, i32 0, i32 2
  store i8 -1, ptr %perfsOffset, align 2
  %prefix = getelementptr inbounds %"struct.cineon::IndustryHeader", ptr %this1, i32 0, i32 4
  store i32 -1, ptr %prefix, align 4
  %count = getelementptr inbounds %"struct.cineon::IndustryHeader", ptr %this1, i32 0, i32 5
  store i32 -1, ptr %count, align 4
  %format = getelementptr inbounds %"struct.cineon::IndustryHeader", ptr %this1, i32 0, i32 6
  %arraydecay = getelementptr inbounds [32 x i8], ptr %format, i64 0, i64 0
  call void @llvm.memset.p0.i64(ptr align 4 %arraydecay, i8 0, i64 32, i1 false)
  %framePosition = getelementptr inbounds %"struct.cineon::IndustryHeader", ptr %this1, i32 0, i32 7
  store i32 -1, ptr %framePosition, align 4
  %call = call noundef float @_ZNSt14numeric_limitsIfE8infinityEv() #5
  %frameRate = getelementptr inbounds %"struct.cineon::IndustryHeader", ptr %this1, i32 0, i32 8
  store float %call, ptr %frameRate, align 4
  %frameId = getelementptr inbounds %"struct.cineon::IndustryHeader", ptr %this1, i32 0, i32 9
  %arraydecay2 = getelementptr inbounds [32 x i8], ptr %frameId, i64 0, i64 0
  call void @llvm.memset.p0.i64(ptr align 4 %arraydecay2, i8 0, i64 32, i1 false)
  %slateInfo = getelementptr inbounds %"struct.cineon::IndustryHeader", ptr %this1, i32 0, i32 10
  %arraydecay3 = getelementptr inbounds [200 x i8], ptr %slateInfo, i64 0, i64 0
  call void @llvm.memset.p0.i64(ptr align 4 %arraydecay3, i8 0, i64 200, i1 false)
  %reserved1 = getelementptr inbounds %"struct.cineon::IndustryHeader", ptr %this1, i32 0, i32 11
  %arraydecay4 = getelementptr inbounds [740 x i8], ptr %reserved1, i64 0, i64 0
  call void @llvm.memset.p0.i64(ptr align 4 %arraydecay4, i8 0, i64 740, i1 false)
  ret void
}

; Function Attrs: mustprogress uwtable
define hidden void @_ZN6cineon14IndustryHeaderC2Ev(ptr noundef nonnull align 4 dereferenceable(1024) %this) unnamed_addr #6 align 2 {
entry:
  %this.addr = alloca ptr, align 8
  store ptr %this, ptr %this.addr, align 8
  %this1 = load ptr, ptr %this.addr, align 8
  call void @_ZN6cineon14IndustryHeader5ResetEv(ptr noundef nonnull align 4 dereferenceable(1024) %this1)
  ret void
}