; Function Attrs: mustprogress nofree norecurse nosync nounwind willreturn memory(argmem: write) uwtable
define hidden void @_ZN6cineon14IndustryHeaderC2Ev(ptr nocapture noundef nonnull writeonly align 4 dereferenceable(1024) %this) unnamed_addr #6 align 2 {
entry:
  store i8 -1, ptr %this, align 4
  %filmType.i = getelementptr inbounds i8, ptr %this, i64 1
  store i8 -1, ptr %filmType.i, align 1
  %perfsOffset.i = getelementptr inbounds i8, ptr %this, i64 2
  store i8 -1, ptr %perfsOffset.i, align 2
  %prefix.i = getelementptr inbounds i8, ptr %this, i64 4
  store i32 -1, ptr %prefix.i, align 4
  %count.i = getelementptr inbounds i8, ptr %this, i64 8
  store i32 -1, ptr %count.i, align 4
  %format.i = getelementptr inbounds i8, ptr %this, i64 12
  tail call void @llvm.memset.p0.i64(ptr noundef nonnull align 4 dereferenceable(32) %format.i, i8 0, i64 32, i1 false)
  %framePosition.i = getelementptr inbounds i8, ptr %this, i64 44
  store i32 -1, ptr %framePosition.i, align 4
  %frameRate.i = getelementptr inbounds i8, ptr %this, i64 48
  store float 0x7FF0000000000000, ptr %frameRate.i, align 4
  %frameId.i = getelementptr inbounds i8, ptr %this, i64 52
  tail call void @llvm.memset.p0.i64(ptr noundef nonnull align 4 dereferenceable(972) %frameId.i, i8 0, i64 972, i1 false)
  ret void
}